target datalayout = "e-m:e-p270:32:32-p271:32:32-p272:64:64-i64:64-i128:128-f80:128-n8:16:32:64-S128"
target triple = "x86_64-pc-linux-gnu"

%struct.ident_t = type { i32, i32, i32, i32, ptr }
%"class.ncnn::Mat" = type { ptr, ptr, i64, i32, ptr, i32, i32, i32, i32, i32, i64 }
%"class.ncnn::Option" = type { i8, i32, ptr, ptr, i32, i8, i8, i8, i8, i8, i8, i8, i8, i8, i8, i8, i8, i8, i8, i8, i8, i8, i8, i8, i8, i32, i8, i8, i8, i8, i8, i8, i8, i8, i8, i8, i8, i8 }

@2 = private unnamed_addr constant %struct.ident_t { i32 0, i32 2, i32 0, i32 22, ptr @0 }, align 8

; Function Attrs: alwaysinline mustprogress nounwind uwtable
define linkonce_odr hidden noundef ptr @_ZNK4ncnn3MatcvPKT_IfEEv(ptr noundef nonnull align 8 dereferenceable(72) %0) #5 comdat align 2 {
  %2 = alloca ptr, align 8
  store ptr %0, ptr %2, align 8, !tbaa !73
  %3 = load ptr, ptr %2, align 8
  %4 = getelementptr inbounds nuw %"class.ncnn::Mat", ptr %3, i32 0, i32 0
  %5 = load ptr, ptr %4, align 8, !tbaa !106
  ret ptr %5
}

; Function Attrs: mustprogress nounwind uwtable
define internal void @_ZN4ncnnL22conv3x3s2_pack1to4_sseERKNS_3MatERS0_S2_S2_RKNS_6OptionE(ptr noundef nonnull align 8 dereferenceable(72) %0, ptr noundef nonnull align 8 dereferenceable(72) %1, ptr noundef nonnull align 8 dereferenceable(72) %2, ptr noundef nonnull align 8 dereferenceable(72) %3, ptr noundef nonnull align 8 dereferenceable(64) %4) #12 {
  %6 = alloca ptr, align 8
  %7 = alloca ptr, align 8
  %8 = alloca ptr, align 8
  %9 = alloca ptr, align 8
  %10 = alloca ptr, align 8
  %11 = alloca i32, align 4
  %12 = alloca i32, align 4
  %13 = alloca i32, align 4
  %14 = alloca i32, align 4
  %15 = alloca i32, align 4
  %16 = alloca i32, align 4
  %17 = alloca ptr, align 8
  %18 = alloca i32, align 4
  %19 = alloca i32, align 4
  %20 = call i32 @__kmpc_global_thread_num(ptr @2)
  store ptr %0, ptr %6, align 8, !tbaa !73
  store ptr %1, ptr %7, align 8, !tbaa !73
  store ptr %2, ptr %8, align 8, !tbaa !73
  store ptr %3, ptr %9, align 8, !tbaa !73
  store ptr %4, ptr %10, align 8, !tbaa !11
  call void @llvm.lifetime.start.p0(i64 4, ptr %11) #14
  %21 = load ptr, ptr %6, align 8, !tbaa !73
  %22 = getelementptr inbounds nuw %"class.ncnn::Mat", ptr %21, i32 0, i32 6
  %23 = load i32, ptr %22, align 4, !tbaa !64
  store i32 %23, ptr %11, align 4, !tbaa !48
  call void @llvm.lifetime.start.p0(i64 4, ptr %12) #14
  %24 = load ptr, ptr %6, align 8, !tbaa !73
  %25 = getelementptr inbounds nuw %"class.ncnn::Mat", ptr %24, i32 0, i32 9
  %26 = load i32, ptr %25, align 8, !tbaa !74
  store i32 %26, ptr %12, align 4, !tbaa !48
  call void @llvm.lifetime.start.p0(i64 4, ptr %13) #14
  %27 = load ptr, ptr %7, align 8, !tbaa !73
  %28 = getelementptr inbounds nuw %"class.ncnn::Mat", ptr %27, i32 0, i32 6
  %29 = load i32, ptr %28, align 4, !tbaa !64
  store i32 %29, ptr %13, align 4, !tbaa !48
  call void @llvm.lifetime.start.p0(i64 4, ptr %14) #14
  %30 = load ptr, ptr %7, align 8, !tbaa !73
  %31 = getelementptr inbounds nuw %"class.ncnn::Mat", ptr %30, i32 0, i32 7
  %32 = load i32, ptr %31, align 8, !tbaa !65
  store i32 %32, ptr %14, align 4, !tbaa !48
  call void @llvm.lifetime.start.p0(i64 4, ptr %15) #14
  %33 = load ptr, ptr %7, align 8, !tbaa !73
  %34 = getelementptr inbounds nuw %"class.ncnn::Mat", ptr %33, i32 0, i32 9
  %35 = load i32, ptr %34, align 8, !tbaa !74
  store i32 %35, ptr %15, align 4, !tbaa !48
  call void @llvm.lifetime.start.p0(i64 4, ptr %16) #14
  %36 = load i32, ptr %11, align 4, !tbaa !48
  %37 = load i32, ptr %13, align 4, !tbaa !48
  %38 = mul nsw i32 2, %37
  %39 = sub nsw i32 %36, %38
  %40 = load i32, ptr %11, align 4, !tbaa !48
  %41 = add nsw i32 %39, %40
  store i32 %41, ptr %16, align 4, !tbaa !48
  call void @llvm.lifetime.start.p0(i64 8, ptr %17) #14
  %42 = load ptr, ptr %9, align 8, !tbaa !73
  %43 = call noundef ptr @_ZNK4ncnn3MatcvPKT_IfEEv(ptr noundef nonnull align 8 dereferenceable(72) %42)
  store ptr %43, ptr %17, align 8, !tbaa !87
  call void @llvm.lifetime.start.p0(i64 4, ptr %18) #14
  %44 = load i32, ptr %15, align 4, !tbaa !48
  %45 = ashr i32 %44, 1
  store i32 %45, ptr %18, align 4, !tbaa !48
  call void @llvm.lifetime.start.p0(i64 4, ptr %19) #14
  %46 = load i32, ptr %18, align 4, !tbaa !48
  %47 = shl i32 %46, 1
  store i32 %47, ptr %19, align 4, !tbaa !48
  %48 = load ptr, ptr %10, align 8, !tbaa !11
  %49 = getelementptr inbounds nuw %"class.ncnn::Option", ptr %48, i32 0, i32 1
  %50 = load i32, ptr %49, align 4, !tbaa !39
  call void @__kmpc_push_num_threads(ptr @2, i32 %20, i32 %50)
  %51 = load ptr, ptr %7, align 8, !tbaa !73
  %52 = load ptr, ptr %8, align 8, !tbaa !73
  %53 = load ptr, ptr %6, align 8, !tbaa !73
  call void (ptr, i32, ptr, ...) @__kmpc_fork_call(ptr @2, i32 9, ptr @_ZN4ncnnL22conv3x3s2_pack1to4_sseERKNS_3MatERS0_S2_S2_RKNS_6OptionE.omp_outlined, ptr %18, ptr %51, ptr %17, ptr %52, ptr %12, ptr %53, ptr %14, ptr %13, ptr %16)
  %54 = load ptr, ptr %10, align 8, !tbaa !11
  %55 = getelementptr inbounds nuw %"class.ncnn::Option", ptr %54, i32 0, i32 1
  %56 = load i32, ptr %55, align 4, !tbaa !39
  call void @__kmpc_push_num_threads(ptr @2, i32 %20, i32 %56)
  %57 = load ptr, ptr %7, align 8, !tbaa !73
  %58 = load ptr, ptr %8, align 8, !tbaa !73
  %59 = load ptr, ptr %6, align 8, !tbaa !73
  call void (ptr, i32, ptr, ...) @__kmpc_fork_call(ptr @2, i32 10, ptr @_ZN4ncnnL22conv3x3s2_pack1to4_sseERKNS_3MatERS0_S2_S2_RKNS_6OptionE.omp_outlined.10, ptr %15, ptr %19, ptr %57, ptr %17, ptr %58, ptr %12, ptr %59, ptr %14, ptr %13, ptr %16)
  call void @llvm.lifetime.end.p0(i64 4, ptr %19) #14
  call void @llvm.lifetime.end.p0(i64 4, ptr %18) #14
  call void @llvm.lifetime.end.p0(i64 8, ptr %17) #14
  call void @llvm.lifetime.end.p0(i64 4, ptr %16) #14
  call void @llvm.lifetime.end.p0(i64 4, ptr %15) #14
  call void @llvm.lifetime.end.p0(i64 4, ptr %14) #14
  call void @llvm.lifetime.end.p0(i64 4, ptr %13) #14
  call void @llvm.lifetime.end.p0(i64 4, ptr %12) #14
  call void @llvm.lifetime.end.p0(i64 4, ptr %11) #14
  ret void
}